target datalayout = "e-m:e-p270:32:32-p271:32:32-p272:64:64-i64:64-i128:128-f80:128-n8:16:32:64-S128"
target triple = "x86_64-pc-linux-gnu"

%struct.FilterStateData = type { ptr, ptr, ptr, i32, %struct.StringInfoData }
%struct.StringInfoData = type { ptr, i32, i32, i32 }

@.str = private unnamed_addr constant [2 x i8] c"-\00", align 1
@.str.1 = private unnamed_addr constant [2 x i8] c"r\00", align 1
@.str.2 = private unnamed_addr constant [36 x i8] c"could not open filter file \22%s\22: %m\00", align 1
@stdin = external global ptr, align 8

; Function Attrs: nounwind uwtable
define dso_local void @filter_init(ptr noundef %0, ptr noundef %1, ptr noundef %2) #0 {
  %4 = alloca ptr, align 8
  %5 = alloca ptr, align 8
  %6 = alloca ptr, align 8
  store ptr %0, ptr %4, align 8
  store ptr %1, ptr %5, align 8
  store ptr %2, ptr %6, align 8
  %7 = load ptr, ptr %5, align 8
  %8 = load ptr, ptr %4, align 8
  %9 = getelementptr inbounds nuw %struct.FilterStateData, ptr %8, i32 0, i32 1
  store ptr %7, ptr %9, align 8
  %10 = load ptr, ptr %4, align 8
  %11 = getelementptr inbounds nuw %struct.FilterStateData, ptr %10, i32 0, i32 3
  store i32 0, ptr %11, align 8
  %12 = load ptr, ptr %6, align 8
  %13 = load ptr, ptr %4, align 8
  %14 = getelementptr inbounds nuw %struct.FilterStateData, ptr %13, i32 0, i32 2
  store ptr %12, ptr %14, align 8
  %15 = load ptr, ptr %4, align 8
  %16 = getelementptr inbounds nuw %struct.FilterStateData, ptr %15, i32 0, i32 4
  call void @initStringInfo(ptr noundef %16)
  %17 = load ptr, ptr %5, align 8
  %18 = call i32 @strcmp(ptr noundef %17, ptr noundef @.str) #7
  %19 = icmp ne i32 %18, 0
  br i1 %19, label %20, label %35

20:                                               ; preds = %3
  %21 = load ptr, ptr %5, align 8
  %22 = call noalias ptr @fopen(ptr noundef %21, ptr noundef @.str.1)
  %23 = load ptr, ptr %4, align 8
  %24 = getelementptr inbounds nuw %struct.FilterStateData, ptr %23, i32 0, i32 0
  store ptr %22, ptr %24, align 8
  %25 = load ptr, ptr %4, align 8
  %26 = getelementptr inbounds nuw %struct.FilterStateData, ptr %25, i32 0, i32 0
  %27 = load ptr, ptr %26, align 8
  %28 = icmp ne ptr %27, null
  br i1 %28, label %34, label %29

29:                                               ; preds = %20
  %30 = load ptr, ptr %5, align 8
  call void (i32, i32, ptr, ...) @pg_log_generic(i32 noundef 4, i32 noundef 0, ptr noundef @.str.2, ptr noundef %30)
  %31 = load ptr, ptr %4, align 8
  %32 = getelementptr inbounds nuw %struct.FilterStateData, ptr %31, i32 0, i32 2
  %33 = load ptr, ptr %32, align 8
  call void %33(i32 noundef 1)
  br label %34

34:                                               ; preds = %29, %20
  br label %39

35:                                               ; preds = %3
  %36 = load ptr, ptr @stdin, align 8
  %37 = load ptr, ptr %4, align 8
  %38 = getelementptr inbounds nuw %struct.FilterStateData, ptr %37, i32 0, i32 0
  store ptr %36, ptr %38, align 8
  br label %39

39:                                               ; preds = %35, %34
  ret void
}