; Function Attrs: nounwind uwtable
define dso_local void @filter_init(ptr noundef initializes((8, 28)) %0, ptr noundef %1, ptr noundef %2) local_unnamed_addr #0 {
sub_0:
  %3 = getelementptr inbounds nuw i8, ptr %0, i64 8
  store ptr %1, ptr %3, align 8
  %4 = getelementptr inbounds nuw i8, ptr %0, i64 24
  store i32 0, ptr %4, align 8
  %5 = getelementptr inbounds nuw i8, ptr %0, i64 16
  store ptr %2, ptr %5, align 8
  %6 = getelementptr inbounds nuw i8, ptr %0, i64 32
  tail call void @initStringInfo(ptr noundef nonnull %6) #9
  %7 = load i8, ptr %1, align 1
  %.not14 = icmp eq i8 %7, 45
  br i1 %.not14, label %.tail, label %.tail.thread

.tail:                                            ; preds = %sub_0
  %8 = getelementptr inbounds nuw i8, ptr %1, i64 1
  %9 = load i8, ptr %8, align 1
  %10 = icmp eq i8 %9, 0
  br i1 %10, label %14, label %.tail.thread

.tail.thread:                                     ; preds = %sub_0, %.tail
  %11 = tail call noalias ptr @fopen(ptr noundef nonnull %1, ptr noundef nonnull @.str.1)
  store ptr %11, ptr %0, align 8
  %.not13 = icmp eq ptr %11, null
  br i1 %.not13, label %12, label %16

12:                                               ; preds = %.tail.thread
  tail call void (i32, i32, ptr, ...) @pg_log_generic(i32 noundef 4, i32 noundef 0, ptr noundef nonnull @.str.2, ptr noundef nonnull %1) #9
  %13 = load ptr, ptr %5, align 8
  tail call void %13(i32 noundef 1) #9
  br label %16

14:                                               ; preds = %.tail
  %15 = load ptr, ptr @stdin, align 8
  store ptr %15, ptr %0, align 8
  br label %16

16:                                               ; preds = %.tail.thread, %12, %14
  ret void
}